target datalayout = "e-m:e-p270:32:32-p271:32:32-p272:64:64-i64:64-i128:128-f80:128-n8:16:32:64-S128"
target triple = "x86_64-pc-linux-gnu"

%struct.timespec = type { i64, i64 }

; Function Attrs: nounwind uwtable
define internal i64 @Abc_Clock() #0 {
  %1 = alloca i64, align 8
  %2 = alloca %struct.timespec, align 8
  %3 = alloca i64, align 8
  %4 = call i32 @clock_gettime(i32 noundef 1, ptr noundef %2) #10
  %5 = icmp slt i32 %4, 0
  br i1 %5, label %6, label %7

6:                                                ; preds = %0
  store i64 -1, ptr %1, align 8
  br label %18

7:                                                ; preds = %0
  %8 = getelementptr inbounds %struct.timespec, ptr %2, i32 0, i32 0
  %9 = load i64, ptr %8, align 8
  %10 = mul nsw i64 %9, 1000000
  store i64 %10, ptr %3, align 8
  %11 = getelementptr inbounds %struct.timespec, ptr %2, i32 0, i32 1
  %12 = load i64, ptr %11, align 8
  %13 = mul nsw i64 %12, 1000000
  %14 = sdiv i64 %13, 1000000000
  %15 = load i64, ptr %3, align 8
  %16 = add nsw i64 %15, %14
  store i64 %16, ptr %3, align 8
  %17 = load i64, ptr %3, align 8
  store i64 %17, ptr %1, align 8
  br label %18

18:                                               ; preds = %7, %6
  %19 = load i64, ptr %1, align 8
  ret i64 %19
}

; Function Attrs: nounwind uwtable
define ptr @Abc_NtkDRewrite(ptr noundef %0, ptr noundef %1) #0 {
  %3 = alloca ptr, align 8
  %4 = alloca ptr, align 8
  %5 = alloca ptr, align 8
  %6 = alloca ptr, align 8
  %7 = alloca ptr, align 8
  %8 = alloca ptr, align 8
  %9 = alloca i64, align 8
  store ptr %0, ptr %4, align 8
  store ptr %1, ptr %5, align 8
  %10 = load ptr, ptr %4, align 8
  %11 = call ptr @Abc_NtkToDar(ptr noundef %10, i32 noundef 0, i32 noundef 0)
  store ptr %11, ptr %6, align 8
  %12 = load ptr, ptr %6, align 8
  %13 = icmp eq ptr %12, null
  br i1 %13, label %14, label %15

14:                                               ; preds = %2
  store ptr null, ptr %3, align 8
  br label %28

15:                                               ; preds = %2
  %16 = load ptr, ptr %6, align 8
  %17 = load ptr, ptr %5, align 8
  %18 = call i32 @Dar_ManRewrite(ptr noundef %16, ptr noundef %17)
  %19 = call i64 @Abc_Clock()
  store i64 %19, ptr %9, align 8
  %20 = load ptr, ptr %6, align 8
  store ptr %20, ptr %7, align 8
  %21 = call ptr @Aig_ManDupDfs(ptr noundef %20)
  store ptr %21, ptr %6, align 8
  %22 = load ptr, ptr %7, align 8
  call void @Aig_ManStop(ptr noundef %22)
  %23 = load ptr, ptr %4, align 8
  %24 = load ptr, ptr %6, align 8
  %25 = call ptr @Abc_NtkFromDar(ptr noundef %23, ptr noundef %24)
  store ptr %25, ptr %8, align 8
  %26 = load ptr, ptr %6, align 8
  call void @Aig_ManStop(ptr noundef %26)
  %27 = load ptr, ptr %8, align 8
  store ptr %27, ptr %3, align 8
  br label %28

28:                                               ; preds = %15, %14
  %29 = load ptr, ptr %3, align 8
  ret ptr %29
}